target datalayout = "e-m:e-p270:32:32-p271:32:32-p272:64:64-i64:64-i128:128-f80:128-n8:16:32:64-S128"
target triple = "x86_64-pc-linux-gnu"

; Function Attrs: nounwind uwtable
define void @ff_vvc_inv_dct2_8(ptr noundef %0, i64 noundef %1, i64 noundef %2) #0 {
  %4 = alloca ptr, align 8
  %5 = alloca i64, align 8
  %6 = alloca i64, align 8
  %7 = alloca i32, align 4
  %8 = alloca i32, align 4
  %9 = alloca i32, align 4
  %10 = alloca i32, align 4
  %11 = alloca i32, align 4
  %12 = alloca i32, align 4
  %13 = alloca i32, align 4
  %14 = alloca i32, align 4
  %15 = alloca i32, align 4
  %16 = alloca i32, align 4
  %17 = alloca i32, align 4
  %18 = alloca i32, align 4
  %19 = alloca i32, align 4
  %20 = alloca i32, align 4
  %21 = alloca i32, align 4
  %22 = alloca [2 x i32], align 4
  %23 = alloca [2 x i32], align 4
  %24 = alloca [4 x i32], align 16
  %25 = alloca [4 x i32], align 16
  store ptr %0, ptr %4, align 8, !tbaa !4
  store i64 %1, ptr %5, align 8, !tbaa !9
  store i64 %2, ptr %6, align 8, !tbaa !9
  call void @llvm.lifetime.start.p0(i64 4, ptr %7) #3
  store i32 64, ptr %7, align 4, !tbaa !11
  call void @llvm.lifetime.start.p0(i64 4, ptr %8) #3
  store i32 83, ptr %8, align 4, !tbaa !11
  call void @llvm.lifetime.start.p0(i64 4, ptr %9) #3
  store i32 36, ptr %9, align 4, !tbaa !11
  call void @llvm.lifetime.start.p0(i64 4, ptr %10) #3
  store i32 89, ptr %10, align 4, !tbaa !11
  call void @llvm.lifetime.start.p0(i64 4, ptr %11) #3
  store i32 75, ptr %11, align 4, !tbaa !11
  call void @llvm.lifetime.start.p0(i64 4, ptr %12) #3
  store i32 50, ptr %12, align 4, !tbaa !11
  call void @llvm.lifetime.start.p0(i64 4, ptr %13) #3
  store i32 18, ptr %13, align 4, !tbaa !11
  call void @llvm.lifetime.start.p0(i64 4, ptr %14) #3
  %26 = load ptr, ptr %4, align 8, !tbaa !4
  %27 = load i64, ptr %5, align 8, !tbaa !9
  %28 = mul nsw i64 0, %27
  %29 = getelementptr inbounds i32, ptr %26, i64 %28
  %30 = load i32, ptr %29, align 4, !tbaa !11
  store i32 %30, ptr %14, align 4, !tbaa !11
  call void @llvm.lifetime.start.p0(i64 4, ptr %15) #3
  %31 = load ptr, ptr %4, align 8, !tbaa !4
  %32 = load i64, ptr %5, align 8, !tbaa !9
  %33 = mul nsw i64 1, %32
  %34 = getelementptr inbounds i32, ptr %31, i64 %33
  %35 = load i32, ptr %34, align 4, !tbaa !11
  store i32 %35, ptr %15, align 4, !tbaa !11
  call void @llvm.lifetime.start.p0(i64 4, ptr %16) #3
  %36 = load ptr, ptr %4, align 8, !tbaa !4
  %37 = load i64, ptr %5, align 8, !tbaa !9
  %38 = mul nsw i64 2, %37
  %39 = getelementptr inbounds i32, ptr %36, i64 %38
  %40 = load i32, ptr %39, align 4, !tbaa !11
  store i32 %40, ptr %16, align 4, !tbaa !11
  call void @llvm.lifetime.start.p0(i64 4, ptr %17) #3
  %41 = load ptr, ptr %4, align 8, !tbaa !4
  %42 = load i64, ptr %5, align 8, !tbaa !9
  %43 = mul nsw i64 3, %42
  %44 = getelementptr inbounds i32, ptr %41, i64 %43
  %45 = load i32, ptr %44, align 4, !tbaa !11
  store i32 %45, ptr %17, align 4, !tbaa !11
  call void @llvm.lifetime.start.p0(i64 4, ptr %18) #3
  %46 = load ptr, ptr %4, align 8, !tbaa !4
  %47 = load i64, ptr %5, align 8, !tbaa !9
  %48 = mul nsw i64 4, %47
  %49 = getelementptr inbounds i32, ptr %46, i64 %48
  %50 = load i32, ptr %49, align 4, !tbaa !11
  store i32 %50, ptr %18, align 4, !tbaa !11
  call void @llvm.lifetime.start.p0(i64 4, ptr %19) #3
  %51 = load ptr, ptr %4, align 8, !tbaa !4
  %52 = load i64, ptr %5, align 8, !tbaa !9
  %53 = mul nsw i64 5, %52
  %54 = getelementptr inbounds i32, ptr %51, i64 %53
  %55 = load i32, ptr %54, align 4, !tbaa !11
  store i32 %55, ptr %19, align 4, !tbaa !11
  call void @llvm.lifetime.start.p0(i64 4, ptr %20) #3
  %56 = load ptr, ptr %4, align 8, !tbaa !4
  %57 = load i64, ptr %5, align 8, !tbaa !9
  %58 = mul nsw i64 6, %57
  %59 = getelementptr inbounds i32, ptr %56, i64 %58
  %60 = load i32, ptr %59, align 4, !tbaa !11
  store i32 %60, ptr %20, align 4, !tbaa !11
  call void @llvm.lifetime.start.p0(i64 4, ptr %21) #3
  %61 = load ptr, ptr %4, align 8, !tbaa !4
  %62 = load i64, ptr %5, align 8, !tbaa !9
  %63 = mul nsw i64 7, %62
  %64 = getelementptr inbounds i32, ptr %61, i64 %63
  %65 = load i32, ptr %64, align 4, !tbaa !11
  store i32 %65, ptr %21, align 4, !tbaa !11
  call void @llvm.lifetime.start.p0(i64 8, ptr %22) #3
  %66 = load i32, ptr %14, align 4, !tbaa !11
  %67 = load i64, ptr %6, align 8, !tbaa !9
  %68 = icmp ugt i64 %67, 4
  br i1 %68, label %69, label %71

69:                                               ; preds = %3
  %70 = load i32, ptr %18, align 4, !tbaa !11
  br label %72

71:                                               ; preds = %3
  br label %72

72:                                               ; preds = %71, %69
  %73 = phi i32 [ %70, %69 ], [ 0, %71 ]
  %74 = add nsw i32 %66, %73
  %75 = mul nsw i32 64, %74
  store i32 %75, ptr %22, align 4, !tbaa !11
  %76 = getelementptr inbounds i32, ptr %22, i64 1
  %77 = load i32, ptr %14, align 4, !tbaa !11
  %78 = load i64, ptr %6, align 8, !tbaa !9
  %79 = icmp ugt i64 %78, 4
  br i1 %79, label %80, label %83

80:                                               ; preds = %72
  %81 = load i32, ptr %18, align 4, !tbaa !11
  %82 = sub nsw i32 0, %81
  br label %84

83:                                               ; preds = %72
  br label %84

84:                                               ; preds = %83, %80
  %85 = phi i32 [ %82, %80 ], [ 0, %83 ]
  %86 = add nsw i32 %77, %85
  %87 = mul nsw i32 64, %86
  store i32 %87, ptr %76, align 4, !tbaa !11
  call void @llvm.lifetime.start.p0(i64 8, ptr %23) #3
  %88 = load i64, ptr %6, align 8, !tbaa !9
  %89 = icmp ugt i64 %88, 2
  br i1 %89, label %90, label %93

90:                                               ; preds = %84
  %91 = load i32, ptr %16, align 4, !tbaa !11
  %92 = mul nsw i32 83, %91
  br label %94

93:                                               ; preds = %84
  br label %94

94:                                               ; preds = %93, %90
  %95 = phi i32 [ %92, %90 ], [ 0, %93 ]
  %96 = load i64, ptr %6, align 8, !tbaa !9
  %97 = icmp ugt i64 %96, 4
  br i1 %97, label %98, label %101

98:                                               ; preds = %94
  %99 = load i32, ptr %20, align 4, !tbaa !11
  %100 = mul nsw i32 36, %99
  br label %102

101:                                              ; preds = %94
  br label %102

102:                                              ; preds = %101, %98
  %103 = phi i32 [ %100, %98 ], [ 0, %101 ]
  %104 = add nsw i32 %95, %103
  store i32 %104, ptr %23, align 4, !tbaa !11
  %105 = getelementptr inbounds i32, ptr %23, i64 1
  %106 = load i64, ptr %6, align 8, !tbaa !9
  %107 = icmp ugt i64 %106, 2
  br i1 %107, label %108, label %111

108:                                              ; preds = %102
  %109 = load i32, ptr %16, align 4, !tbaa !11
  %110 = mul nsw i32 36, %109
  br label %112

111:                                              ; preds = %102
  br label %112

112:                                              ; preds = %111, %108
  %113 = phi i32 [ %110, %108 ], [ 0, %111 ]
  %114 = load i64, ptr %6, align 8, !tbaa !9
  %115 = icmp ugt i64 %114, 4
  br i1 %115, label %116, label %119

116:                                              ; preds = %112
  %117 = load i32, ptr %20, align 4, !tbaa !11
  %118 = mul nsw i32 -83, %117
  br label %120

119:                                              ; preds = %112
  br label %120

120:                                              ; preds = %119, %116
  %121 = phi i32 [ %118, %116 ], [ 0, %119 ]
  %122 = add nsw i32 %113, %121
  store i32 %122, ptr %105, align 4, !tbaa !11
  call void @llvm.lifetime.start.p0(i64 16, ptr %24) #3
  %123 = getelementptr inbounds [2 x i32], ptr %22, i64 0, i64 0
  %124 = load i32, ptr %123, align 4, !tbaa !11
  %125 = getelementptr inbounds [2 x i32], ptr %23, i64 0, i64 0
  %126 = load i32, ptr %125, align 4, !tbaa !11
  %127 = add nsw i32 %124, %126
  store i32 %127, ptr %24, align 4, !tbaa !11
  %128 = getelementptr inbounds i32, ptr %24, i64 1
  %129 = getelementptr inbounds [2 x i32], ptr %22, i64 0, i64 1
  %130 = load i32, ptr %129, align 4, !tbaa !11
  %131 = getelementptr inbounds [2 x i32], ptr %23, i64 0, i64 1
  %132 = load i32, ptr %131, align 4, !tbaa !11
  %133 = add nsw i32 %130, %132
  store i32 %133, ptr %128, align 4, !tbaa !11
  %134 = getelementptr inbounds i32, ptr %24, i64 2
  %135 = getelementptr inbounds [2 x i32], ptr %22, i64 0, i64 1
  %136 = load i32, ptr %135, align 4, !tbaa !11
  %137 = getelementptr inbounds [2 x i32], ptr %23, i64 0, i64 1
  %138 = load i32, ptr %137, align 4, !tbaa !11
  %139 = sub nsw i32 %136, %138
  store i32 %139, ptr %134, align 4, !tbaa !11
  %140 = getelementptr inbounds i32, ptr %24, i64 3
  %141 = getelementptr inbounds [2 x i32], ptr %22, i64 0, i64 0
  %142 = load i32, ptr %141, align 4, !tbaa !11
  %143 = getelementptr inbounds [2 x i32], ptr %23, i64 0, i64 0
  %144 = load i32, ptr %143, align 4, !tbaa !11
  %145 = sub nsw i32 %142, %144
  store i32 %145, ptr %140, align 4, !tbaa !11
  call void @llvm.lifetime.start.p0(i64 16, ptr %25) #3
  %146 = load i32, ptr %15, align 4, !tbaa !11
  %147 = mul nsw i32 89, %146
  %148 = load i64, ptr %6, align 8, !tbaa !9
  %149 = icmp ugt i64 %148, 2
  br i1 %149, label %150, label %153

150:                                              ; preds = %120
  %151 = load i32, ptr %17, align 4, !tbaa !11
  %152 = mul nsw i32 75, %151
  br label %154

153:                                              ; preds = %120
  br label %154

154:                                              ; preds = %153, %150
  %155 = phi i32 [ %152, %150 ], [ 0, %153 ]
  %156 = add nsw i32 %147, %155
  %157 = load i64, ptr %6, align 8, !tbaa !9
  %158 = icmp ugt i64 %157, 4
  br i1 %158, label %159, label %165

159:                                              ; preds = %154
  %160 = load i32, ptr %19, align 4, !tbaa !11
  %161 = mul nsw i32 50, %160
  %162 = load i32, ptr %21, align 4, !tbaa !11
  %163 = mul nsw i32 18, %162
  %164 = add nsw i32 %161, %163
  br label %166

165:                                              ; preds = %154
  br label %166

166:                                              ; preds = %165, %159
  %167 = phi i32 [ %164, %159 ], [ 0, %165 ]
  %168 = add nsw i32 %156, %167
  store i32 %168, ptr %25, align 4, !tbaa !11
  %169 = getelementptr inbounds i32, ptr %25, i64 1
  %170 = load i32, ptr %15, align 4, !tbaa !11
  %171 = mul nsw i32 75, %170
  %172 = load i64, ptr %6, align 8, !tbaa !9
  %173 = icmp ugt i64 %172, 2
  br i1 %173, label %174, label %177

174:                                              ; preds = %166
  %175 = load i32, ptr %17, align 4, !tbaa !11
  %176 = mul nsw i32 -18, %175
  br label %178

177:                                              ; preds = %166
  br label %178

178:                                              ; preds = %177, %174
  %179 = phi i32 [ %176, %174 ], [ 0, %177 ]
  %180 = add nsw i32 %171, %179
  %181 = load i64, ptr %6, align 8, !tbaa !9
  %182 = icmp ugt i64 %181, 4
  br i1 %182, label %183, label %189

183:                                              ; preds = %178
  %184 = load i32, ptr %19, align 4, !tbaa !11
  %185 = mul nsw i32 -89, %184
  %186 = load i32, ptr %21, align 4, !tbaa !11
  %187 = mul nsw i32 50, %186
  %188 = sub nsw i32 %185, %187
  br label %190

189:                                              ; preds = %178
  br label %190

190:                                              ; preds = %189, %183
  %191 = phi i32 [ %188, %183 ], [ 0, %189 ]
  %192 = add nsw i32 %180, %191
  store i32 %192, ptr %169, align 4, !tbaa !11
  %193 = getelementptr inbounds i32, ptr %25, i64 2
  %194 = load i32, ptr %15, align 4, !tbaa !11
  %195 = mul nsw i32 50, %194
  %196 = load i64, ptr %6, align 8, !tbaa !9
  %197 = icmp ugt i64 %196, 2
  br i1 %197, label %198, label %201

198:                                              ; preds = %190
  %199 = load i32, ptr %17, align 4, !tbaa !11
  %200 = mul nsw i32 -89, %199
  br label %202

201:                                              ; preds = %190
  br label %202

202:                                              ; preds = %201, %198
  %203 = phi i32 [ %200, %198 ], [ 0, %201 ]
  %204 = add nsw i32 %195, %203
  %205 = load i64, ptr %6, align 8, !tbaa !9
  %206 = icmp ugt i64 %205, 4
  br i1 %206, label %207, label %213

207:                                              ; preds = %202
  %208 = load i32, ptr %19, align 4, !tbaa !11
  %209 = mul nsw i32 18, %208
  %210 = load i32, ptr %21, align 4, !tbaa !11
  %211 = mul nsw i32 75, %210
  %212 = add nsw i32 %209, %211
  br label %214

213:                                              ; preds = %202
  br label %214

214:                                              ; preds = %213, %207
  %215 = phi i32 [ %212, %207 ], [ 0, %213 ]
  %216 = add nsw i32 %204, %215
  store i32 %216, ptr %193, align 4, !tbaa !11
  %217 = getelementptr inbounds i32, ptr %25, i64 3
  %218 = load i32, ptr %15, align 4, !tbaa !11
  %219 = mul nsw i32 18, %218
  %220 = load i64, ptr %6, align 8, !tbaa !9
  %221 = icmp ugt i64 %220, 2
  br i1 %221, label %222, label %225

222:                                              ; preds = %214
  %223 = load i32, ptr %17, align 4, !tbaa !11
  %224 = mul nsw i32 -50, %223
  br label %226

225:                                              ; preds = %214
  br label %226

226:                                              ; preds = %225, %222
  %227 = phi i32 [ %224, %222 ], [ 0, %225 ]
  %228 = add nsw i32 %219, %227
  %229 = load i64, ptr %6, align 8, !tbaa !9
  %230 = icmp ugt i64 %229, 4
  br i1 %230, label %231, label %237

231:                                              ; preds = %226
  %232 = load i32, ptr %19, align 4, !tbaa !11
  %233 = mul nsw i32 75, %232
  %234 = load i32, ptr %21, align 4, !tbaa !11
  %235 = mul nsw i32 89, %234
  %236 = sub nsw i32 %233, %235
  br label %238

237:                                              ; preds = %226
  br label %238

238:                                              ; preds = %237, %231
  %239 = phi i32 [ %236, %231 ], [ 0, %237 ]
  %240 = add nsw i32 %228, %239
  store i32 %240, ptr %217, align 4, !tbaa !11
  %241 = getelementptr inbounds [4 x i32], ptr %24, i64 0, i64 0
  %242 = load i32, ptr %241, align 16, !tbaa !11
  %243 = getelementptr inbounds [4 x i32], ptr %25, i64 0, i64 0
  %244 = load i32, ptr %243, align 16, !tbaa !11
  %245 = add nsw i32 %242, %244
  %246 = load ptr, ptr %4, align 8, !tbaa !4
  %247 = load i64, ptr %5, align 8, !tbaa !9
  %248 = mul nsw i64 0, %247
  %249 = getelementptr inbounds i32, ptr %246, i64 %248
  store i32 %245, ptr %249, align 4, !tbaa !11
  %250 = getelementptr inbounds [4 x i32], ptr %24, i64 0, i64 1
  %251 = load i32, ptr %250, align 4, !tbaa !11
  %252 = getelementptr inbounds [4 x i32], ptr %25, i64 0, i64 1
  %253 = load i32, ptr %252, align 4, !tbaa !11
  %254 = add nsw i32 %251, %253
  %255 = load ptr, ptr %4, align 8, !tbaa !4
  %256 = load i64, ptr %5, align 8, !tbaa !9
  %257 = mul nsw i64 1, %256
  %258 = getelementptr inbounds i32, ptr %255, i64 %257
  store i32 %254, ptr %258, align 4, !tbaa !11
  %259 = getelementptr inbounds [4 x i32], ptr %24, i64 0, i64 2
  %260 = load i32, ptr %259, align 8, !tbaa !11
  %261 = getelementptr inbounds [4 x i32], ptr %25, i64 0, i64 2
  %262 = load i32, ptr %261, align 8, !tbaa !11
  %263 = add nsw i32 %260, %262
  %264 = load ptr, ptr %4, align 8, !tbaa !4
  %265 = load i64, ptr %5, align 8, !tbaa !9
  %266 = mul nsw i64 2, %265
  %267 = getelementptr inbounds i32, ptr %264, i64 %266
  store i32 %263, ptr %267, align 4, !tbaa !11
  %268 = getelementptr inbounds [4 x i32], ptr %24, i64 0, i64 3
  %269 = load i32, ptr %268, align 4, !tbaa !11
  %270 = getelementptr inbounds [4 x i32], ptr %25, i64 0, i64 3
  %271 = load i32, ptr %270, align 4, !tbaa !11
  %272 = add nsw i32 %269, %271
  %273 = load ptr, ptr %4, align 8, !tbaa !4
  %274 = load i64, ptr %5, align 8, !tbaa !9
  %275 = mul nsw i64 3, %274
  %276 = getelementptr inbounds i32, ptr %273, i64 %275
  store i32 %272, ptr %276, align 4, !tbaa !11
  %277 = getelementptr inbounds [4 x i32], ptr %24, i64 0, i64 3
  %278 = load i32, ptr %277, align 4, !tbaa !11
  %279 = getelementptr inbounds [4 x i32], ptr %25, i64 0, i64 3
  %280 = load i32, ptr %279, align 4, !tbaa !11
  %281 = sub nsw i32 %278, %280
  %282 = load ptr, ptr %4, align 8, !tbaa !4
  %283 = load i64, ptr %5, align 8, !tbaa !9
  %284 = mul nsw i64 4, %283
  %285 = getelementptr inbounds i32, ptr %282, i64 %284
  store i32 %281, ptr %285, align 4, !tbaa !11
  %286 = getelementptr inbounds [4 x i32], ptr %24, i64 0, i64 2
  %287 = load i32, ptr %286, align 8, !tbaa !11
  %288 = getelementptr inbounds [4 x i32], ptr %25, i64 0, i64 2
  %289 = load i32, ptr %288, align 8, !tbaa !11
  %290 = sub nsw i32 %287, %289
  %291 = load ptr, ptr %4, align 8, !tbaa !4
  %292 = load i64, ptr %5, align 8, !tbaa !9
  %293 = mul nsw i64 5, %292
  %294 = getelementptr inbounds i32, ptr %291, i64 %293
  store i32 %290, ptr %294, align 4, !tbaa !11
  %295 = getelementptr inbounds [4 x i32], ptr %24, i64 0, i64 1
  %296 = load i32, ptr %295, align 4, !tbaa !11
  %297 = getelementptr inbounds [4 x i32], ptr %25, i64 0, i64 1
  %298 = load i32, ptr %297, align 4, !tbaa !11
  %299 = sub nsw i32 %296, %298
  %300 = load ptr, ptr %4, align 8, !tbaa !4
  %301 = load i64, ptr %5, align 8, !tbaa !9
  %302 = mul nsw i64 6, %301
  %303 = getelementptr inbounds i32, ptr %300, i64 %302
  store i32 %299, ptr %303, align 4, !tbaa !11
  %304 = getelementptr inbounds [4 x i32], ptr %24, i64 0, i64 0
  %305 = load i32, ptr %304, align 16, !tbaa !11
  %306 = getelementptr inbounds [4 x i32], ptr %25, i64 0, i64 0
  %307 = load i32, ptr %306, align 16, !tbaa !11
  %308 = sub nsw i32 %305, %307
  %309 = load ptr, ptr %4, align 8, !tbaa !4
  %310 = load i64, ptr %5, align 8, !tbaa !9
  %311 = mul nsw i64 7, %310
  %312 = getelementptr inbounds i32, ptr %309, i64 %311
  store i32 %308, ptr %312, align 4, !tbaa !11
  call void @llvm.lifetime.end.p0(i64 16, ptr %25) #3
  call void @llvm.lifetime.end.p0(i64 16, ptr %24) #3
  call void @llvm.lifetime.end.p0(i64 8, ptr %23) #3
  call void @llvm.lifetime.end.p0(i64 8, ptr %22) #3
  call void @llvm.lifetime.end.p0(i64 4, ptr %21) #3
  call void @llvm.lifetime.end.p0(i64 4, ptr %20) #3
  call void @llvm.lifetime.end.p0(i64 4, ptr %19) #3
  call void @llvm.lifetime.end.p0(i64 4, ptr %18) #3
  call void @llvm.lifetime.end.p0(i64 4, ptr %17) #3
  call void @llvm.lifetime.end.p0(i64 4, ptr %16) #3
  call void @llvm.lifetime.end.p0(i64 4, ptr %15) #3
  call void @llvm.lifetime.end.p0(i64 4, ptr %14) #3
  call void @llvm.lifetime.end.p0(i64 4, ptr %13) #3
  call void @llvm.lifetime.end.p0(i64 4, ptr %12) #3
  call void @llvm.lifetime.end.p0(i64 4, ptr %11) #3
  call void @llvm.lifetime.end.p0(i64 4, ptr %10) #3
  call void @llvm.lifetime.end.p0(i64 4, ptr %9) #3
  call void @llvm.lifetime.end.p0(i64 4, ptr %8) #3
  call void @llvm.lifetime.end.p0(i64 4, ptr %7) #3
  ret void
}