; Function Attrs: mustprogress nofree norecurse nosync nounwind willreturn memory(argmem: readwrite) uwtable
define void @ff_vvc_inv_dct2_8(ptr noundef captures(none) %0, i64 noundef %1, i64 noundef %2) local_unnamed_addr #0 {
  %4 = load i32, ptr %0, align 4, !tbaa !4
  %5 = getelementptr inbounds i32, ptr %0, i64 %1
  %6 = load i32, ptr %5, align 4, !tbaa !4
  %.idx = shl nsw i64 %1, 3
  %7 = getelementptr inbounds i8, ptr %0, i64 %.idx
  %8 = load i32, ptr %7, align 4, !tbaa !4
  %.idx89 = mul nsw i64 %1, 12
  %9 = getelementptr inbounds i8, ptr %0, i64 %.idx89
  %10 = load i32, ptr %9, align 4, !tbaa !4
  %.idx90 = shl nsw i64 %1, 4
  %11 = getelementptr inbounds i8, ptr %0, i64 %.idx90
  %.idx91 = mul nsw i64 %1, 20
  %12 = getelementptr inbounds i8, ptr %0, i64 %.idx91
  %.idx92 = mul nsw i64 %1, 24
  %13 = getelementptr inbounds i8, ptr %0, i64 %.idx92
  %.idx93 = mul nsw i64 %1, 28
  %14 = getelementptr inbounds i8, ptr %0, i64 %.idx93
  %15 = icmp ugt i64 %2, 4
  br i1 %15, label %16, label %33

16:                                               ; preds = %3
  %17 = load i32, ptr %12, align 4, !tbaa !4
  %18 = mul nsw i32 %17, 18
  %19 = load i32, ptr %14, align 4, !tbaa !4
  %20 = mul nsw i32 %19, 75
  %21 = add nsw i32 %20, %18
  %.neg = mul i32 %19, -50
  %22 = mul nsw i32 %17, -89
  %23 = add i32 %.neg, %22
  %24 = mul nsw i32 %17, 50
  %25 = mul nsw i32 %19, 18
  %26 = add nsw i32 %25, %24
  %27 = load i32, ptr %13, align 4, !tbaa !4
  %28 = mul nsw i32 %27, -83
  %29 = mul nsw i32 %27, 36
  %30 = load i32, ptr %11, align 4, !tbaa !4
  %31 = mul nsw i32 %17, 75
  %.neg94 = mul i32 %19, -89
  %32 = add i32 %.neg94, %31
  br label %33

33:                                               ; preds = %3, %16
  %34 = phi i32 [ 0, %3 ], [ %21, %16 ]
  %35 = phi i32 [ 0, %3 ], [ %23, %16 ]
  %36 = phi i32 [ 0, %3 ], [ %26, %16 ]
  %37 = phi i32 [ 0, %3 ], [ %29, %16 ]
  %38 = phi i32 [ 0, %3 ], [ %30, %16 ]
  %39 = phi i32 [ 0, %3 ], [ %28, %16 ]
  %40 = phi i32 [ 0, %3 ], [ %32, %16 ]
  %41 = mul nsw i32 %6, 18
  %42 = icmp ugt i64 %2, 2
  %43 = mul nsw i32 %10, -50
  %44 = select i1 %42, i32 %43, i32 0
  %45 = add nsw i32 %44, %41
  %46 = mul nsw i32 %6, 50
  %47 = mul nsw i32 %10, -89
  %48 = select i1 %42, i32 %47, i32 0
  %49 = add nsw i32 %48, %46
  %50 = add nsw i32 %49, %34
  %51 = mul nsw i32 %6, 75
  %52 = mul nsw i32 %10, -18
  %53 = select i1 %42, i32 %52, i32 0
  %54 = add nsw i32 %53, %51
  %55 = add nsw i32 %54, %35
  %56 = mul nsw i32 %6, 89
  %57 = mul nsw i32 %10, 75
  %58 = select i1 %42, i32 %57, i32 0
  %59 = add nsw i32 %58, %56
  %60 = add nsw i32 %59, %36
  %61 = add nsw i32 %38, %4
  %62 = shl nsw i32 %61, 6
  %63 = mul nsw i32 %8, 83
  %64 = select i1 %42, i32 %63, i32 0
  %65 = add nsw i32 %37, %64
  %66 = sub nsw i32 %62, %65
  %67 = sub i32 %4, %38
  %68 = shl nsw i32 %67, 6
  %69 = mul nsw i32 %8, 36
  %70 = select i1 %42, i32 %69, i32 0
  %71 = add nsw i32 %39, %70
  %72 = sub nsw i32 %68, %71
  %73 = add nsw i32 %68, %71
  %74 = add nsw i32 %62, %65
  %75 = add nsw i32 %45, %40
  %76 = add nsw i32 %74, %60
  store i32 %76, ptr %0, align 4, !tbaa !4
  %77 = add nsw i32 %73, %55
  store i32 %77, ptr %5, align 4, !tbaa !4
  %78 = add nsw i32 %72, %50
  store i32 %78, ptr %7, align 4, !tbaa !4
  %79 = add nsw i32 %66, %75
  store i32 %79, ptr %9, align 4, !tbaa !4
  %80 = sub nsw i32 %66, %75
  store i32 %80, ptr %11, align 4, !tbaa !4
  %81 = sub nsw i32 %72, %50
  store i32 %81, ptr %12, align 4, !tbaa !4
  %82 = sub nsw i32 %73, %55
  store i32 %82, ptr %13, align 4, !tbaa !4
  %83 = sub nsw i32 %74, %60
  store i32 %83, ptr %14, align 4, !tbaa !4
  ret void
}